target datalayout = "e-m:e-p270:32:32-p271:32:32-p272:64:64-i64:64-i128:128-f80:128-n8:16:32:64-S128"
target triple = "x86_64-pc-linux-gnu"

%struct.slurm_conf_t = type { i64, ptr, i16, ptr, ptr, ptr, ptr, ptr, i16, ptr, ptr, ptr, ptr, ptr, ptr, ptr, i16, ptr, ptr, ptr, ptr, i16, ptr, ptr, ptr, i64, ptr, ptr, ptr, ptr, i16, ptr, ptr, i16, i32, ptr, i32, ptr, i32, i32, ptr, ptr, i64, i64, ptr, i16, i16, ptr, i32, i32, ptr, i32, ptr, i32, i16, i16, i16, ptr, i16, i16, ptr, ptr, i32, i16, i16, ptr, i32, i16, ptr, ptr, ptr, ptr, i16, ptr, ptr, ptr, ptr, i32, ptr, ptr, ptr, ptr, i16, i16, ptr, i32, i32, i32, i16, i16, ptr, ptr, i16, ptr, ptr, i32, i32, i32, i32, i32, i64, i32, i32, i16, ptr, ptr, i32, ptr, ptr, ptr, i16, i32, ptr, ptr, i16, ptr, ptr, i32, i16, ptr, ptr, ptr, ptr, i32, i32, i16, i16, i32, ptr, i16, ptr, i32, i32, i32, i32, i32, i32, ptr, i16, ptr, ptr, i32, i16, ptr, i32, i16, i16, ptr, ptr, ptr, i16, ptr, ptr, ptr, ptr, i16, i16, ptr, i16, ptr, i16, ptr, i16, ptr, i16, ptr, ptr, ptr, ptr, i16, ptr, ptr, ptr, i32, ptr, i32, ptr, ptr, i16, ptr, ptr, i32, i16, ptr, ptr, i16, i16, ptr, i16, ptr, ptr, ptr, i32, ptr, i16, i16, ptr, ptr, ptr, ptr, ptr, ptr, ptr, ptr, i16, i32, i16, ptr, ptr, ptr, ptr, i32, ptr, ptr, ptr, i16, ptr, ptr, ptr, i16, ptr, i16, ptr, i16, i16, ptr }
%struct.data_s = type { i32, i32, %union.anon }
%union.anon = type { ptr }
%struct.data_list_s = type { i32, i64, ptr, ptr }
%struct.data_list_node_s = type { i32, ptr, ptr, ptr }
%struct.find_dict_match_t = type { ptr, ptr, i8 }

@slurm_conf = external global %struct.slurm_conf_t, align 8
@.str.101 = private unnamed_addr constant [69 x i8] c"DATA: dictionary compare: %s(0x%lX)=%s(0x%lX) %s %s(0x%lX)=%s(0x%lX)\00", align 1
@.str.102 = private unnamed_addr constant [4 x i8] c"\E2\89\A1\00", align 1
@.str.103 = private unnamed_addr constant [4 x i8] c"\E2\89\A0\00", align 1

; Function Attrs: nounwind uwtable
define internal void @_check_data_list_node_magic(ptr noundef %0) #0 {
  %2 = alloca ptr, align 8
  store ptr %0, ptr %2, align 8
  ret void
}

; Function Attrs: nounwind uwtable
define internal void @_check_data_list_magic(ptr noundef %0) #0 {
  %2 = alloca ptr, align 8
  store ptr %0, ptr %2, align 8
  ret void
}

; Function Attrs: nounwind uwtable
define internal void @_check_magic(ptr noundef %0) #0 {
  %2 = alloca ptr, align 8
  store ptr %0, ptr %2, align 8
  %3 = load ptr, ptr %2, align 8
  %4 = icmp ne ptr %3, null
  br i1 %4, label %6, label %5

5:                                                ; preds = %1
  br label %29

6:                                                ; preds = %1
  %7 = load i64, ptr getelementptr inbounds nuw (%struct.slurm_conf_t, ptr @slurm_conf, i32 0, i32 42), align 8
  %8 = and i64 %7, 256
  %9 = icmp ne i64 %8, 0
  br i1 %9, label %10, label %29

10:                                               ; preds = %6
  %11 = load ptr, ptr %2, align 8
  %12 = getelementptr inbounds nuw %struct.data_s, ptr %11, i32 0, i32 1
  %13 = load i32, ptr %12, align 4
  %14 = icmp eq i32 %13, 65282
  br i1 %14, label %15, label %19

15:                                               ; preds = %10
  %16 = load ptr, ptr %2, align 8
  %17 = getelementptr inbounds nuw %struct.data_s, ptr %16, i32 0, i32 2
  %18 = load ptr, ptr %17, align 8
  call void @_check_data_list_magic(ptr noundef %18)
  br label %19

19:                                               ; preds = %15, %10
  %20 = load ptr, ptr %2, align 8
  %21 = getelementptr inbounds nuw %struct.data_s, ptr %20, i32 0, i32 1
  %22 = load i32, ptr %21, align 4
  %23 = icmp eq i32 %22, 65283
  br i1 %23, label %24, label %28

24:                                               ; preds = %19
  %25 = load ptr, ptr %2, align 8
  %26 = getelementptr inbounds nuw %struct.data_s, ptr %25, i32 0, i32 2
  %27 = load ptr, ptr %26, align 8
  call void @_check_data_list_magic(ptr noundef %27)
  br label %28

28:                                               ; preds = %24, %19
  br label %29

29:                                               ; preds = %5, %28, %6
  ret void
}

; Function Attrs: nounwind uwtable
define internal ptr @_type_to_string(i32 noundef %0) #0 {
  %2 = alloca i32, align 4
  store i32 %0, ptr %2, align 4
  %3 = load i32, ptr %2, align 4
  %4 = call ptr @data_type_to_string(i32 noundef %3)
  ret ptr %4
}

; Function Attrs: nounwind uwtable
define dso_local ptr @data_key_get_const(ptr noundef %0, ptr noundef %1) #0 {
  %3 = alloca ptr, align 8
  %4 = alloca ptr, align 8
  %5 = alloca ptr, align 8
  %6 = alloca ptr, align 8
  %7 = alloca i32, align 4
  store ptr %0, ptr %4, align 8
  store ptr %1, ptr %5, align 8
  call void @llvm.lifetime.start.p0(i64 8, ptr %6) #10
  %8 = load ptr, ptr %4, align 8
  call void @_check_magic(ptr noundef %8)
  %9 = load ptr, ptr %4, align 8
  %10 = icmp ne ptr %9, null
  br i1 %10, label %12, label %11

11:                                               ; preds = %2
  store ptr null, ptr %3, align 8
  store i32 1, ptr %7, align 4
  br label %62

12:                                               ; preds = %2
  %13 = load ptr, ptr %5, align 8
  %14 = icmp ne ptr %13, null
  br i1 %14, label %15, label %20

15:                                               ; preds = %12
  %16 = load ptr, ptr %4, align 8
  %17 = getelementptr inbounds nuw %struct.data_s, ptr %16, i32 0, i32 1
  %18 = load i32, ptr %17, align 4
  %19 = icmp ne i32 %18, 65283
  br i1 %19, label %20, label %21

20:                                               ; preds = %15, %12
  store ptr null, ptr %3, align 8
  store i32 1, ptr %7, align 4
  br label %62

21:                                               ; preds = %15
  %22 = load ptr, ptr %4, align 8
  %23 = getelementptr inbounds nuw %struct.data_s, ptr %22, i32 0, i32 2
  %24 = load ptr, ptr %23, align 8
  %25 = getelementptr inbounds nuw %struct.data_list_s, ptr %24, i32 0, i32 1
  %26 = load i64, ptr %25, align 8
  %27 = icmp ne i64 %26, 0
  br i1 %27, label %29, label %28

28:                                               ; preds = %21
  store ptr null, ptr %3, align 8
  store i32 1, ptr %7, align 4
  br label %62

29:                                               ; preds = %21
  %30 = load ptr, ptr %4, align 8
  %31 = getelementptr inbounds nuw %struct.data_s, ptr %30, i32 0, i32 2
  %32 = load ptr, ptr %31, align 8
  call void @_check_data_list_magic(ptr noundef %32)
  %33 = load ptr, ptr %4, align 8
  %34 = getelementptr inbounds nuw %struct.data_s, ptr %33, i32 0, i32 2
  %35 = load ptr, ptr %34, align 8
  %36 = getelementptr inbounds nuw %struct.data_list_s, ptr %35, i32 0, i32 2
  %37 = load ptr, ptr %36, align 8
  store ptr %37, ptr %6, align 8
  br label %38

38:                                               ; preds = %50, %29
  %39 = load ptr, ptr %6, align 8
  %40 = icmp ne ptr %39, null
  br i1 %40, label %41, label %54

41:                                               ; preds = %38
  %42 = load ptr, ptr %6, align 8
  call void @_check_data_list_node_magic(ptr noundef %42)
  %43 = load ptr, ptr %5, align 8
  %44 = load ptr, ptr %6, align 8
  %45 = getelementptr inbounds nuw %struct.data_list_node_s, ptr %44, i32 0, i32 3
  %46 = load ptr, ptr %45, align 8
  %47 = call i32 @xstrcmp(ptr noundef %43, ptr noundef %46)
  %48 = icmp ne i32 %47, 0
  br i1 %48, label %50, label %49

49:                                               ; preds = %41
  br label %54

50:                                               ; preds = %41
  %51 = load ptr, ptr %6, align 8
  %52 = getelementptr inbounds nuw %struct.data_list_node_s, ptr %51, i32 0, i32 1
  %53 = load ptr, ptr %52, align 8
  store ptr %53, ptr %6, align 8
  br label %38, !llvm.loop !16

54:                                               ; preds = %49, %38
  %55 = load ptr, ptr %6, align 8
  %56 = icmp ne ptr %55, null
  br i1 %56, label %57, label %61

57:                                               ; preds = %54
  %58 = load ptr, ptr %6, align 8
  %59 = getelementptr inbounds nuw %struct.data_list_node_s, ptr %58, i32 0, i32 2
  %60 = load ptr, ptr %59, align 8
  store ptr %60, ptr %3, align 8
  store i32 1, ptr %7, align 4
  br label %62

61:                                               ; preds = %54
  store ptr null, ptr %3, align 8
  store i32 1, ptr %7, align 4
  br label %62

62:                                               ; preds = %61, %57, %28, %20, %11
  call void @llvm.lifetime.end.p0(i64 8, ptr %6) #10
  %63 = load ptr, ptr %3, align 8
  ret ptr %63
}

; Function Attrs: nounwind uwtable
define internal i32 @_find_dict_match(ptr noundef %0, ptr noundef %1, ptr noundef %2) #0 {
  %4 = alloca ptr, align 8
  %5 = alloca ptr, align 8
  %6 = alloca ptr, align 8
  %7 = alloca i8, align 1
  %8 = alloca ptr, align 8
  %9 = alloca ptr, align 8
  store ptr %0, ptr %4, align 8
  store ptr %1, ptr %5, align 8
  store ptr %2, ptr %6, align 8
  call void @llvm.lifetime.start.p0(i64 1, ptr %7) #10
  call void @llvm.lifetime.start.p0(i64 8, ptr %8) #10
  %10 = load ptr, ptr %6, align 8
  store ptr %10, ptr %8, align 8
  call void @llvm.lifetime.start.p0(i64 8, ptr %9) #10
  %11 = load ptr, ptr %8, align 8
  %12 = getelementptr inbounds nuw %struct.find_dict_match_t, ptr %11, i32 0, i32 1
  %13 = load ptr, ptr %12, align 8
  %14 = load ptr, ptr %4, align 8
  %15 = call ptr @data_key_get_const(ptr noundef %13, ptr noundef %14)
  store ptr %15, ptr %9, align 8
  %16 = load ptr, ptr %5, align 8
  %17 = load ptr, ptr %9, align 8
  %18 = load ptr, ptr %8, align 8
  %19 = getelementptr inbounds nuw %struct.find_dict_match_t, ptr %18, i32 0, i32 2
  %20 = load i8, ptr %19, align 8, !range !11, !noundef !12
  %21 = trunc i8 %20 to i1
  %22 = call zeroext i1 @data_check_match(ptr noundef %16, ptr noundef %17, i1 noundef zeroext %21)
  %23 = zext i1 %22 to i8
  store i8 %23, ptr %7, align 1
  br label %24

24:                                               ; preds = %3
  %25 = load i64, ptr getelementptr inbounds nuw (%struct.slurm_conf_t, ptr @slurm_conf, i32 0, i32 42), align 8
  %26 = and i64 %25, 256
  %27 = icmp ne i64 %26, 0
  br i1 %27, label %28, label %68

28:                                               ; preds = %24
  br label %29

29:                                               ; preds = %28
  %30 = call i32 @get_log_level()
  %31 = icmp sge i32 %30, 4
  br i1 %31, label %32, label %65

32:                                               ; preds = %29
  %33 = load ptr, ptr %4, align 8
  %34 = load ptr, ptr %8, align 8
  %35 = getelementptr inbounds nuw %struct.find_dict_match_t, ptr %34, i32 0, i32 0
  %36 = load ptr, ptr %35, align 8
  %37 = ptrtoint ptr %36 to i64
  %38 = load ptr, ptr %5, align 8
  %39 = getelementptr inbounds nuw %struct.data_s, ptr %38, i32 0, i32 1
  %40 = load i32, ptr %39, align 4
  %41 = call ptr @_type_to_string(i32 noundef %40)
  %42 = load ptr, ptr %5, align 8
  %43 = ptrtoint ptr %42 to i64
  %44 = load i8, ptr %7, align 1, !range !11, !noundef !12
  %45 = trunc i8 %44 to i1
  %46 = select i1 %45, ptr @.str.102, ptr @.str.103
  %47 = load ptr, ptr %4, align 8
  %48 = load ptr, ptr %8, align 8
  %49 = getelementptr inbounds nuw %struct.find_dict_match_t, ptr %48, i32 0, i32 1
  %50 = load ptr, ptr %49, align 8
  %51 = ptrtoint ptr %50 to i64
  %52 = load ptr, ptr %9, align 8
  %53 = icmp ne ptr %52, null
  br i1 %53, label %54, label %59

54:                                               ; preds = %32
  %55 = load ptr, ptr %9, align 8
  %56 = getelementptr inbounds nuw %struct.data_s, ptr %55, i32 0, i32 1
  %57 = load i32, ptr %56, align 4
  %58 = call ptr @_type_to_string(i32 noundef %57)
  br label %61

59:                                               ; preds = %32
  %60 = call ptr @_type_to_string(i32 noundef 0)
  br label %61

61:                                               ; preds = %59, %54
  %62 = phi ptr [ %58, %54 ], [ %60, %59 ]
  %63 = load ptr, ptr %9, align 8
  %64 = ptrtoint ptr %63 to i64
  call void (i32, ptr, ...) @log_var(i32 noundef 4, ptr noundef @.str.101, ptr noundef %33, i64 noundef %37, ptr noundef %41, i64 noundef %43, ptr noundef %46, ptr noundef %47, i64 noundef %51, ptr noundef %62, i64 noundef %64)
  br label %65

65:                                               ; preds = %61, %29
  br label %66

66:                                               ; preds = %65
  br label %67

67:                                               ; preds = %66
  br label %68

68:                                               ; preds = %67, %24
  br label %69

69:                                               ; preds = %68
  br label %70

70:                                               ; preds = %69
  %71 = load i8, ptr %7, align 1, !range !11, !noundef !12
  %72 = trunc i8 %71 to i1
  %73 = select i1 %72, i32 1, i32 4
  call void @llvm.lifetime.end.p0(i64 8, ptr %9) #10
  call void @llvm.lifetime.end.p0(i64 8, ptr %8) #10
  call void @llvm.lifetime.end.p0(i64 1, ptr %7) #10
  ret i32 %73
}