; Function Attrs: nounwind uwtable
define internal range(i32 1, 5) i32 @_find_dict_match(ptr noundef %0, ptr noundef %1, ptr noundef readonly captures(none) %2) #0 {
  %4 = getelementptr inbounds nuw i8, ptr %2, i64 8
  %5 = load ptr, ptr %4, align 8
  %.not.i = icmp eq ptr %5, null
  %.not18.i = icmp eq ptr %0, null
  %or.cond.i = or i1 %.not18.i, %.not.i
  br i1 %or.cond.i, label %data_key_get_const.exit, label %6

6:                                                ; preds = %3
  %7 = getelementptr inbounds nuw i8, ptr %5, i64 4
  %8 = load i32, ptr %7, align 4
  %.not19.i = icmp eq i32 %8, 65283
  br i1 %.not19.i, label %9, label %data_key_get_const.exit

9:                                                ; preds = %6
  %10 = getelementptr inbounds nuw i8, ptr %5, i64 8
  %11 = load ptr, ptr %10, align 8
  %12 = getelementptr inbounds nuw i8, ptr %11, i64 8
  %13 = load i64, ptr %12, align 8
  %.not20.i = icmp eq i64 %13, 0
  br i1 %.not20.i, label %data_key_get_const.exit, label %14

14:                                               ; preds = %9
  %15 = getelementptr inbounds nuw i8, ptr %11, i64 16
  %.024.i = load ptr, ptr %15, align 8
  %.not2125.i = icmp eq ptr %.024.i, null
  br i1 %.not2125.i, label %data_key_get_const.exit, label %.lr.ph.i

.lr.ph.i:                                         ; preds = %14, %19
  %.026.i = phi ptr [ %.0.i, %19 ], [ %.024.i, %14 ]
  %16 = getelementptr inbounds nuw i8, ptr %.026.i, i64 24
  %17 = load ptr, ptr %16, align 8
  %18 = tail call i32 @xstrcmp(ptr noundef nonnull %0, ptr noundef %17) #16
  %.not22.i = icmp eq i32 %18, 0
  br i1 %.not22.i, label %21, label %19

19:                                               ; preds = %.lr.ph.i
  %20 = getelementptr inbounds nuw i8, ptr %.026.i, i64 8
  %.0.i = load ptr, ptr %20, align 8
  %.not21.i = icmp eq ptr %.0.i, null
  br i1 %.not21.i, label %data_key_get_const.exit, label %.lr.ph.i, !llvm.loop !15

21:                                               ; preds = %.lr.ph.i
  %22 = getelementptr inbounds nuw i8, ptr %.026.i, i64 16
  %23 = load ptr, ptr %22, align 8
  br label %data_key_get_const.exit

data_key_get_const.exit:                          ; preds = %19, %3, %6, %9, %14, %21
  %.015.i = phi ptr [ %23, %21 ], [ null, %3 ], [ null, %6 ], [ null, %9 ], [ null, %14 ], [ null, %19 ]
  %24 = getelementptr inbounds nuw i8, ptr %2, i64 16
  %25 = load i8, ptr %24, align 8, !range !19, !noundef !20
  %26 = trunc nuw i8 %25 to i1
  %27 = tail call zeroext i1 @data_check_match(ptr noundef %1, ptr noundef %.015.i, i1 noundef zeroext %26)
  %28 = load i64, ptr getelementptr inbounds nuw (i8, ptr @slurm_conf, i64 320), align 8
  %29 = and i64 %28, 256
  %.not = icmp eq i64 %29, 0
  br i1 %.not, label %50, label %30

30:                                               ; preds = %data_key_get_const.exit
  %31 = tail call i32 @get_log_level() #16
  %32 = icmp sgt i32 %31, 3
  br i1 %32, label %33, label %50

33:                                               ; preds = %30
  %34 = load ptr, ptr %2, align 8
  %35 = ptrtoint ptr %34 to i64
  %36 = getelementptr inbounds nuw i8, ptr %1, i64 4
  %37 = load i32, ptr %36, align 4
  %38 = tail call nonnull ptr @data_type_to_string(i32 noundef %37)
  %39 = ptrtoint ptr %1 to i64
  %40 = select i1 %27, ptr @.str.102, ptr @.str.103
  %41 = load ptr, ptr %4, align 8
  %42 = ptrtoint ptr %41 to i64
  %.not16 = icmp eq ptr %.015.i, null
  br i1 %.not16, label %47, label %43

43:                                               ; preds = %33
  %44 = getelementptr inbounds nuw i8, ptr %.015.i, i64 4
  %45 = load i32, ptr %44, align 4
  %46 = tail call nonnull ptr @data_type_to_string(i32 noundef %45)
  br label %47

47:                                               ; preds = %33, %43
  %48 = phi ptr [ %46, %43 ], [ @.str.70, %33 ]
  %49 = ptrtoint ptr %.015.i to i64
  tail call void (i32, ptr, ...) @log_var(i32 noundef 4, ptr noundef nonnull @.str.101, ptr noundef %0, i64 noundef %35, ptr noundef nonnull %38, i64 noundef %39, ptr noundef nonnull %40, ptr noundef %0, i64 noundef %42, ptr noundef nonnull %48, i64 noundef %49) #16
  br label %50

50:                                               ; preds = %30, %47, %data_key_get_const.exit
  %51 = select i1 %27, i32 1, i32 4
  ret i32 %51
}